target datalayout = "e-m:e-p270:32:32-p271:32:32-p272:64:64-i64:64-i128:128-f80:128-n8:16:32:64-S128"
target triple = "x86_64-unknown-linux-gnu"

%struct.counter_accum_s = type { %struct.locked_u64_s, i64 }
%struct.locked_u64_s = type { %struct.atomic_u64_t }
%struct.atomic_u64_t = type { i64 }

@opt_stats_interval = hidden global i64 -1, align 8
@stats_interval_accum_batch = internal global i64 0, align 8
@stats_interval_accumulated = internal global %struct.counter_accum_s zeroinitializer, align 8

; Function Attrs: nounwind uwtable
define hidden zeroext i1 @stats_boot() #0 {
entry:
  %stats_interval = alloca i64, align 8
  %batch = alloca i64, align 8
  %0 = load i64, ptr @opt_stats_interval, align 8
  %cmp = icmp slt i64 %0, 0
  br i1 %cmp, label %if.then, label %if.else

if.then:                                          ; preds = %entry
  br label %do.body

do.body:                                          ; preds = %if.then
  br label %do.end

do.end:                                           ; preds = %do.body
  store i64 0, ptr %stats_interval, align 8
  store i64 0, ptr @stats_interval_accum_batch, align 8
  br label %if.end8

if.else:                                          ; preds = %entry
  %1 = load i64, ptr @opt_stats_interval, align 8
  %cmp1 = icmp sgt i64 %1, 0
  br i1 %cmp1, label %cond.true, label %cond.false

cond.true:                                        ; preds = %if.else
  %2 = load i64, ptr @opt_stats_interval, align 8
  br label %cond.end

cond.false:                                       ; preds = %if.else
  br label %cond.end

cond.end:                                         ; preds = %cond.false, %cond.true
  %cond = phi i64 [ %2, %cond.true ], [ 1, %cond.false ]
  store i64 %cond, ptr %stats_interval, align 8
  %3 = load i64, ptr %stats_interval, align 8
  %shr = lshr i64 %3, 6
  store i64 %shr, ptr %batch, align 8
  %4 = load i64, ptr %batch, align 8
  %cmp2 = icmp ugt i64 %4, 4194304
  br i1 %cmp2, label %if.then3, label %if.else4

if.then3:                                         ; preds = %cond.end
  store i64 4194304, ptr %batch, align 8
  br label %if.end7

if.else4:                                         ; preds = %cond.end
  %5 = load i64, ptr %batch, align 8
  %cmp5 = icmp eq i64 %5, 0
  br i1 %cmp5, label %if.then6, label %if.end

if.then6:                                         ; preds = %if.else4
  store i64 1, ptr %batch, align 8
  br label %if.end

if.end:                                           ; preds = %if.then6, %if.else4
  br label %if.end7

if.end7:                                          ; preds = %if.end, %if.then3
  %6 = load i64, ptr %batch, align 8
  store i64 %6, ptr @stats_interval_accum_batch, align 8
  br label %if.end8

if.end8:                                          ; preds = %if.end7, %do.end
  %7 = load i64, ptr %stats_interval, align 8
  %call = call zeroext i1 @counter_accum_init(ptr noundef @stats_interval_accumulated, i64 noundef %7)
  ret i1 %call
}