; Function Attrs: nounwind uwtable
define hidden zeroext i1 @stats_boot() local_unnamed_addr #0 {
entry:
  %0 = load i64, ptr @opt_stats_interval, align 8
  %cmp = icmp slt i64 %0, 0
  br i1 %cmp, label %if.end8, label %if.else

if.else:                                          ; preds = %entry
  %cond = tail call i64 @llvm.umax.i64(i64 %0, i64 1)
  %cmp2 = icmp ugt i64 %0, 268435519
  %shr = lshr i64 %cond, 6
  %cmp5 = icmp ult i64 %0, 64
  %spec.store.select = select i1 %cmp5, i64 1, i64 %shr
  %batch.0 = select i1 %cmp2, i64 4194304, i64 %spec.store.select
  br label %if.end8

if.end8:                                          ; preds = %entry, %if.else
  %storemerge = phi i64 [ %batch.0, %if.else ], [ 0, %entry ]
  %stats_interval.0 = phi i64 [ %cond, %if.else ], [ 0, %entry ]
  store i64 %storemerge, ptr @stats_interval_accum_batch, align 8
  %call = tail call zeroext i1 @counter_accum_init(ptr noundef nonnull @stats_interval_accumulated, i64 noundef %stats_interval.0) #13
  ret i1 %call
}